target datalayout = "e-m:e-p270:32:32-p271:32:32-p272:64:64-i64:64-i128:128-f80:128-n8:16:32:64-S128"
target triple = "x86_64-unknown-linux-gnu"

%class.base_macro_solver = type { ptr, ptr, ptr, ptr }
%class.obj_hashtable = type { %class.core_hashtable.base.44, [4 x i8] }
%class.core_hashtable.base.44 = type <{ ptr, i32, i32, i32 }>
%class.hint_macro_solver = type { %class.base_macro_solver, %class.obj_map.49, %class.obj_pair_map, %class.ptr_vector.58, %class.obj_map.60, %class.ptr_vector.65, %class.obj_hashtable, %class.obj_hashtable, %class.backtrackable_set, %class.backtrackable_set.75, %class.obj_map.78, %class.obj_mark, %class.obj_hashtable }
%class.obj_map.49 = type { %class.core_hashtable.50 }
%class.core_hashtable.50 = type <{ ptr, i32, i32, i32, [4 x i8] }>
%class.obj_pair_map = type { %class.core_hashtable.54 }
%class.core_hashtable.54 = type <{ ptr, i32, i32, i32, [4 x i8] }>
%class.ptr_vector.58 = type { %class.vector.59 }
%class.vector.59 = type { ptr }
%class.obj_map.60 = type { %class.core_hashtable.61 }
%class.core_hashtable.61 = type <{ ptr, i32, i32, i32, [4 x i8] }>
%class.ptr_vector.65 = type { %class.vector.66 }
%class.vector.66 = type { ptr }
%class.backtrackable_set = type { %class.obj_hashtable.67, %class.svector.73, %class.svector.31 }
%class.obj_hashtable.67 = type { %class.core_hashtable.base.71, [4 x i8] }
%class.core_hashtable.base.71 = type <{ ptr, i32, i32, i32 }>
%class.svector.73 = type { %class.vector.74 }
%class.vector.74 = type { ptr }
%class.svector.31 = type { %class.vector.32 }
%class.vector.32 = type { ptr }
%class.backtrackable_set.75 = type { %"struct.hint_macro_solver::ev_handler", %class.obj_hashtable.67, %class.svector.76, %class.svector.31 }
%"struct.hint_macro_solver::ev_handler" = type { ptr }
%class.svector.76 = type { %class.vector.77 }
%class.vector.77 = type { ptr }
%class.obj_map.78 = type { %class.core_hashtable.79 }
%class.core_hashtable.79 = type <{ ptr, i32, i32, i32, [4 x i8] }>
%class.obj_mark = type { %struct.default_t2uint, %class.bit_vector }
%struct.default_t2uint = type { i8 }
%class.bit_vector = type { i32, i32, ptr }
%"struct.hint_macro_solver::occurs_check" = type { ptr }

@_ZTIN17hint_macro_solver6occursE = linkonce_odr hidden constant { ptr, ptr } { ptr getelementptr inbounds (ptr, ptr @_ZTVN10__cxxabiv117__class_type_infoE, i64 2), ptr @_ZTSN17hint_macro_solver6occursE }, comdat, align 8

; Function Attrs: mustprogress nounwind uwtable
define linkonce_odr hidden void @_ZN10bit_vector5resetEv(ptr noundef nonnull align 8 dereferenceable(16) %this) #5 comdat align 2 {
entry:
  %this.addr = alloca ptr, align 8
  store ptr %this, ptr %this.addr, align 8
  %this1 = load ptr, ptr %this.addr, align 8
  %m_data = getelementptr inbounds %class.bit_vector, ptr %this1, i32 0, i32 2
  %0 = load ptr, ptr %m_data, align 8
  %tobool = icmp ne ptr %0, null
  br i1 %tobool, label %if.then, label %if.end

if.then:                                          ; preds = %entry
  %m_data2 = getelementptr inbounds %class.bit_vector, ptr %this1, i32 0, i32 2
  %1 = load ptr, ptr %m_data2, align 8
  %m_capacity = getelementptr inbounds %class.bit_vector, ptr %this1, i32 0, i32 1
  %2 = load i32, ptr %m_capacity, align 4
  %conv = zext i32 %2 to i64
  %mul = mul i64 %conv, 4
  call void @llvm.memset.p0.i64(ptr align 4 %1, i8 0, i64 %mul, i1 false)
  br label %if.end

if.end:                                           ; preds = %if.then, %entry
  %m_num_bits = getelementptr inbounds %class.bit_vector, ptr %this1, i32 0, i32 0
  store i32 0, ptr %m_num_bits, align 8
  ret void
}

; Function Attrs: mustprogress uwtable
define linkonce_odr hidden void @_Z13for_each_exprIN17hint_macro_solver12occurs_checkEEvRT_R8obj_markI4expr10bit_vector14default_t2uintIS5_EEPS5_(ptr noundef nonnull align 8 dereferenceable(8) %proc, ptr noundef nonnull align 8 dereferenceable(24) %visited, ptr noundef %n) #4 comdat {
entry:
  %proc.addr = alloca ptr, align 8
  %visited.addr = alloca ptr, align 8
  %n.addr = alloca ptr, align 8
  store ptr %proc, ptr %proc.addr, align 8
  store ptr %visited, ptr %visited.addr, align 8
  store ptr %n, ptr %n.addr, align 8
  %0 = load ptr, ptr %proc.addr, align 8
  %1 = load ptr, ptr %visited.addr, align 8
  %2 = load ptr, ptr %n.addr, align 8
  call void @_Z18for_each_expr_coreIN17hint_macro_solver12occurs_checkE8obj_markI4expr10bit_vector14default_t2uintIS3_EELb1ELb0EEvRT_RT0_PS3_(ptr noundef nonnull align 8 dereferenceable(8) %0, ptr noundef nonnull align 8 dereferenceable(24) %1, ptr noundef %2)
  ret void
}

; Function Attrs: mustprogress nounwind uwtable
define linkonce_odr hidden void @_ZN17hint_macro_solver12occurs_checkC2ERS_(ptr noundef nonnull align 8 dereferenceable(8) %this, ptr noundef nonnull align 8 dereferenceable(328) %hs) unnamed_addr #5 comdat align 2 {
entry:
  %this.addr = alloca ptr, align 8
  %hs.addr = alloca ptr, align 8
  store ptr %this, ptr %this.addr, align 8
  store ptr %hs, ptr %hs.addr, align 8
  %this1 = load ptr, ptr %this.addr, align 8
  %m_cls = getelementptr inbounds %"struct.hint_macro_solver::occurs_check", ptr %this1, i32 0, i32 0
  %0 = load ptr, ptr %hs.addr, align 8
  store ptr %0, ptr %m_cls, align 8
  ret void
}

; Function Attrs: mustprogress uwtable
define linkonce_odr hidden void @_ZN8obj_markI4expr10bit_vector14default_t2uintIS0_EE5resetEv(ptr noundef nonnull align 8 dereferenceable(24) %this) #4 comdat align 2 {
entry:
  %this.addr = alloca ptr, align 8
  store ptr %this, ptr %this.addr, align 8
  %this1 = load ptr, ptr %this.addr, align 8
  %m_marks = getelementptr inbounds %class.obj_mark, ptr %this1, i32 0, i32 1
  call void @_ZN10bit_vector5resetEv(ptr noundef nonnull align 8 dereferenceable(16) %m_marks)
  ret void
}

; Function Attrs: mustprogress uwtable
define hidden noundef zeroext i1 @_ZN17hint_macro_solver10is_acyclicEP4expr(ptr noundef nonnull align 8 dereferenceable(328) %this, ptr noundef %def) #4 align 2 personality ptr @__gxx_personality_v0 {
entry:
  %retval = alloca i1, align 1
  %this.addr = alloca ptr, align 8
  %def.addr = alloca ptr, align 8
  %oc = alloca %"struct.hint_macro_solver::occurs_check", align 8
  %exn.slot = alloca ptr, align 8
  %ehselector.slot = alloca i32, align 4
  %0 = alloca ptr, align 8
  store ptr %this, ptr %this.addr, align 8
  store ptr %def, ptr %def.addr, align 8
  %this1 = load ptr, ptr %this.addr, align 8
  %m_visited = getelementptr inbounds %class.hint_macro_solver, ptr %this1, i32 0, i32 11
  call void @_ZN8obj_markI4expr10bit_vector14default_t2uintIS0_EE5resetEv(ptr noundef nonnull align 8 dereferenceable(24) %m_visited)
  call void @_ZN17hint_macro_solver12occurs_checkC2ERS_(ptr noundef nonnull align 8 dereferenceable(8) %oc, ptr noundef nonnull align 8 dereferenceable(328) %this1)
  %m_visited2 = getelementptr inbounds %class.hint_macro_solver, ptr %this1, i32 0, i32 11
  %1 = load ptr, ptr %def.addr, align 8
  invoke void @_Z13for_each_exprIN17hint_macro_solver12occurs_checkEEvRT_R8obj_markI4expr10bit_vector14default_t2uintIS5_EEPS5_(ptr noundef nonnull align 8 dereferenceable(8) %oc, ptr noundef nonnull align 8 dereferenceable(24) %m_visited2, ptr noundef %1)
          to label %invoke.cont unwind label %lpad

invoke.cont:                                      ; preds = %entry
  br label %try.cont

lpad:                                             ; preds = %entry
  %2 = landingpad { ptr, i32 }
          catch ptr @_ZTIN17hint_macro_solver6occursE
  %3 = extractvalue { ptr, i32 } %2, 0
  store ptr %3, ptr %exn.slot, align 8
  %4 = extractvalue { ptr, i32 } %2, 1
  store i32 %4, ptr %ehselector.slot, align 4
  br label %catch.dispatch

catch.dispatch:                                   ; preds = %lpad
  %sel = load i32, ptr %ehselector.slot, align 4
  %5 = call i32 @llvm.eh.typeid.for(ptr @_ZTIN17hint_macro_solver6occursE) #3
  %matches = icmp eq i32 %sel, %5
  br i1 %matches, label %catch, label %eh.resume

catch:                                            ; preds = %catch.dispatch
  %exn = load ptr, ptr %exn.slot, align 8
  %6 = call ptr @__cxa_begin_catch(ptr %exn) #3
  store ptr %6, ptr %0, align 8
  store i1 false, ptr %retval, align 1
  call void @__cxa_end_catch()
  br label %return

try.cont:                                         ; preds = %invoke.cont
  store i1 true, ptr %retval, align 1
  br label %return

return:                                           ; preds = %try.cont, %catch
  %7 = load i1, ptr %retval, align 1
  ret i1 %7

eh.resume:                                        ; preds = %catch.dispatch
  %exn3 = load ptr, ptr %exn.slot, align 8
  %sel4 = load i32, ptr %ehselector.slot, align 4
  %lpad.val = insertvalue { ptr, i32 } poison, ptr %exn3, 0
  %lpad.val5 = insertvalue { ptr, i32 } %lpad.val, i32 %sel4, 1
  resume { ptr, i32 } %lpad.val5
}