; Function Attrs: mustprogress uwtable
define hidden noundef zeroext i1 @_ZN17hint_macro_solver10is_acyclicEP4expr(ptr noundef nonnull align 8 dereferenceable(328) %this, ptr noundef %def) local_unnamed_addr #3 align 2 personality ptr @__gxx_personality_v0 {
entry:
  %oc = alloca %"struct.hint_macro_solver::occurs_check", align 8
  %m_visited = getelementptr inbounds i8, ptr %this, i64 280
  %m_data.i.i = getelementptr inbounds i8, ptr %this, i64 296
  %0 = load ptr, ptr %m_data.i.i, align 8
  %tobool.not.i.i = icmp eq ptr %0, null
  br i1 %tobool.not.i.i, label %_ZN8obj_markI4expr10bit_vector14default_t2uintIS0_EE5resetEv.exit, label %if.then.i.i

if.then.i.i:                                      ; preds = %entry
  %m_capacity.i.i = getelementptr inbounds i8, ptr %this, i64 292
  %1 = load i32, ptr %m_capacity.i.i, align 4
  %conv.i.i = zext i32 %1 to i64
  %mul.i.i = shl nuw nsw i64 %conv.i.i, 2
  tail call void @llvm.memset.p0.i64(ptr nonnull align 4 %0, i8 0, i64 %mul.i.i, i1 false)
  br label %_ZN8obj_markI4expr10bit_vector14default_t2uintIS0_EE5resetEv.exit

_ZN8obj_markI4expr10bit_vector14default_t2uintIS0_EE5resetEv.exit: ; preds = %entry, %if.then.i.i
  %m_marks.i = getelementptr inbounds i8, ptr %this, i64 288
  store i32 0, ptr %m_marks.i, align 8
  store ptr %this, ptr %oc, align 8
  invoke void @_Z18for_each_expr_coreIN17hint_macro_solver12occurs_checkE8obj_markI4expr10bit_vector14default_t2uintIS3_EELb1ELb0EEvRT_RT0_PS3_(ptr noundef nonnull align 8 dereferenceable(8) %oc, ptr noundef nonnull align 8 dereferenceable(24) %m_visited, ptr noundef %def)
          to label %return unwind label %lpad

lpad:                                             ; preds = %_ZN8obj_markI4expr10bit_vector14default_t2uintIS0_EE5resetEv.exit
  %2 = landingpad { ptr, i32 }
          catch ptr @_ZTIN17hint_macro_solver6occursE
  %3 = extractvalue { ptr, i32 } %2, 1
  %4 = call i32 @llvm.eh.typeid.for(ptr nonnull @_ZTIN17hint_macro_solver6occursE) #18
  %matches = icmp eq i32 %3, %4
  br i1 %matches, label %catch, label %eh.resume

catch:                                            ; preds = %lpad
  %5 = extractvalue { ptr, i32 } %2, 0
  %6 = call ptr @__cxa_begin_catch(ptr %5) #18
  call void @__cxa_end_catch()
  br label %return

return:                                           ; preds = %_ZN8obj_markI4expr10bit_vector14default_t2uintIS0_EE5resetEv.exit, %catch
  %retval.0 = phi i1 [ false, %catch ], [ true, %_ZN8obj_markI4expr10bit_vector14default_t2uintIS0_EE5resetEv.exit ]
  ret i1 %retval.0

eh.resume:                                        ; preds = %lpad
  resume { ptr, i32 } %2
}